; Function Attrs: nofree norecurse nosync nounwind memory(argmem: readwrite) uwtable
define internal void @pred8x16_mad_cow_dc_0lt_9(ptr noundef captures(none) %0, i64 noundef %1) #3 {
  tail call void @pred8x16_dc_9_c(ptr noundef %0, i64 noundef %1)
  %3 = lshr i64 %1, 1
  %4 = trunc i64 %3 to i32
  %.neg.i = mul i64 %3, -4294967296
  %5 = ashr exact i64 %.neg.i, 31
  %6 = getelementptr inbounds i8, ptr %0, i64 %5
  %7 = load i16, ptr %6, align 2, !tbaa !9
  %8 = zext i16 %7 to i64
  %9 = shl i64 %3, 32
  %sext.i = sub i64 4294967296, %9
  %10 = ashr exact i64 %sext.i, 31
  %11 = getelementptr inbounds i8, ptr %0, i64 %10
  %12 = load i16, ptr %11, align 2, !tbaa !9
  %13 = zext i16 %12 to i64
  %sext22.i = sub i64 8589934592, %9
  %14 = ashr exact i64 %sext22.i, 31
  %15 = getelementptr inbounds i8, ptr %0, i64 %14
  %16 = load i16, ptr %15, align 2, !tbaa !9
  %17 = zext i16 %16 to i64
  %sext23.i = sub i64 12884901888, %9
  %18 = ashr exact i64 %sext23.i, 31
  %19 = getelementptr inbounds i8, ptr %0, i64 %18
  %20 = load i16, ptr %19, align 2, !tbaa !9
  %21 = zext i16 %20 to i64
  %22 = add nuw nsw i64 %8, 2
  %23 = add nuw nsw i64 %22, %13
  %24 = add nuw nsw i64 %23, %17
  %25 = add nuw nsw i64 %24, %21
  %26 = lshr i64 %25, 2
  %27 = mul nuw i64 %26, 281479271743489
  store i64 %27, ptr %0, align 8, !tbaa !8
  %28 = ashr exact i64 %9, 31
  %29 = getelementptr inbounds i8, ptr %0, i64 %28
  store i64 %27, ptr %29, align 8, !tbaa !8
  %30 = shl nsw i32 %4, 1
  %31 = sext i32 %30 to i64
  %32 = getelementptr inbounds i16, ptr %0, i64 %31
  store i64 %27, ptr %32, align 8, !tbaa !8
  %sext25.i = mul i64 %3, 12884901888
  %33 = ashr exact i64 %sext25.i, 31
  %34 = getelementptr inbounds i8, ptr %0, i64 %33
  store i64 %27, ptr %34, align 8, !tbaa !8
  ret void
}